; Function Attrs: mustprogress ssp uwtable
define void @_ZN6open3d2io3rpc11ZMQReceiver4StopEv(ptr noundef nonnull align 8 dereferenceable(160) %0) local_unnamed_addr #1 align 2 personality ptr @__gxx_personality_v0 {
  %2 = getelementptr inbounds nuw i8, ptr %0, i64 80
  %3 = tail call noundef i32 @pthread_mutex_lock(ptr noundef nonnull align 8 dereferenceable(40) %2) #33
  %.not.i.i = icmp eq i32 %3, 0
  br i1 %.not.i.i, label %_ZNSt10lock_guardISt5mutexEC2ERS0_.exit, label %4

4:                                                ; preds = %1
  tail call void @_ZSt20__throw_system_errori(i32 noundef %3) #36
  unreachable

_ZNSt10lock_guardISt5mutexEC2ERS0_.exit:          ; preds = %1
  %5 = getelementptr inbounds nuw i8, ptr %0, i64 120
  %6 = load i8, ptr %5, align 8, !tbaa !58, !range !59, !noundef !60
  %7 = trunc nuw i8 %6 to i1
  br i1 %7, label %8, label %.critedge

8:                                                ; preds = %_ZNSt10lock_guardISt5mutexEC2ERS0_.exit
  store i8 0, ptr %5, align 8, !tbaa !58
  %9 = tail call noundef i32 @pthread_mutex_unlock(ptr noundef nonnull align 8 dereferenceable(40) %2) #33
  %10 = getelementptr inbounds nuw i8, ptr %0, i64 72
  tail call void @_ZNSt6thread4joinEv(ptr noundef nonnull align 8 dereferenceable(8) %10)
  tail call void @_ZN6open3d7utility6Logger9LogDebug_IJEEEvPKciS4_S4_DpOT_(ptr noundef nonnull @.str.1, i32 noundef 81, ptr noundef nonnull @__PRETTY_FUNCTION__._ZN6open3d2io3rpc11ZMQReceiver4StopEv, ptr noundef nonnull @.str.5)
  br label %12

.critedge:                                        ; preds = %_ZNSt10lock_guardISt5mutexEC2ERS0_.exit
  %11 = tail call noundef i32 @pthread_mutex_unlock(ptr noundef nonnull align 8 dereferenceable(40) %2) #33
  tail call void @_ZN6open3d7utility6Logger9LogDebug_IJEEEvPKciS4_S4_DpOT_(ptr noundef nonnull @.str.1, i32 noundef 83, ptr noundef nonnull @__PRETTY_FUNCTION__._ZN6open3d2io3rpc11ZMQReceiver4StopEv, ptr noundef nonnull @.str.6)
  br label %12

12:                                               ; preds = %.critedge, %8
  ret void
}